ccopy_reg
_reconstructor
p0
(cDataBase
DataBase
p1
c__builtin__
object
p2
Ntp3
Rp4
(dp5
S'tables'
p6
(lp7
sS'path'
p8
S''
p9
sS'charset'
p10
S'UTF-8'
p11
sS'user'
p12
(lp13
g0
(cuser
User
p14
g2
Ntp15
Rp16
(dp17
S'pwd'
p18
S'root'
p19
sS'name'
p20
g19
sS'weight'
p21
I1
sbasg20
S'a'
p22
sb.