ccopy_reg
_reconstructor
p0
(cTable
Table
p1
c__builtin__
object
p2
Ntp3
Rp4
(dp5
S'keys'
p6
(tsS'items'
p7
(lp8
g0
(cItem
Item
p9
g2
Ntp10
Rp11
(dp12
S'name'
p13
S'a'
p14
sS'iskey'
p15
I01
sS'length'
p16
I0
sS'cannull'
p17
I00
sS'type'
p18
S'int'
p19
sS'types'
p20
Nsbag0
(g9
g2
Ntp21
Rp22
(dp23
g13
S'b'
p24
sg15
I00
sg16
S'20'
p25
sg17
I00
sg18
S'char'
p26
sg20
NsbasS'forKey'
p27
(dp28
sg13
S'd'
p29
sb.